; ModuleID = '23/283.c'
source_filename = "23/283.c"
target datalayout = "e-m:e-p270:32:32-p271:32:32-p272:64:64-i64:64-f80:128-n8:16:32:64-S128"
target triple = "x86_64-pc-linux-gnu"

@.str = private unnamed_addr constant [3 x i8] c"%c\00", align 1

; Function Attrs: noinline nounwind uwtable
define dso_local void @main() #0 {
  %1 = alloca [100 x i8], align 16
  %2 = alloca i8, align 1
  %3 = alloca i32, align 4
  %4 = alloca i32, align 4
  %5 = alloca i32, align 4
  %6 = alloca i32, align 4
  store i8 32, i8* %2, align 1
  store i32 1, i32* %3, align 4
  %7 = getelementptr inbounds [100 x i8], [100 x i8]* %1, i64 0, i64 0
  %8 = call i32 (i8*, ...) bitcast (i32 (...)* @gets to i32 (i8*, ...)*)(i8* %7)
  store i32 0, i32* %6, align 4
  br label %9

9:                                                ; preds = %115, %0
  %10 = load i32, i32* %6, align 4
  %11 = icmp slt i32 %10, 100
  br i1 %11, label %12, label %118

12:                                               ; preds = %9
  %13 = load i32, i32* %6, align 4
  %14 = sext i32 %13 to i64
  %15 = getelementptr inbounds [100 x i8], [100 x i8]* %1, i64 0, i64 %14
  %16 = load i8, i8* %15, align 1
  %17 = sext i8 %16 to i32
  %18 = load i8, i8* %2, align 1
  %19 = sext i8 %18 to i32
  %20 = icmp ne i32 %17, %19
  br i1 %20, label %21, label %33

21:                                               ; preds = %12
  %22 = load i32, i32* %6, align 4
  %23 = add nsw i32 %22, 1
  %24 = sext i32 %23 to i64
  %25 = getelementptr inbounds [100 x i8], [100 x i8]* %1, i64 0, i64 %24
  %26 = load i8, i8* %25, align 1
  %27 = sext i8 %26 to i32
  %28 = icmp eq i32 %27, 0
  br i1 %28, label %29, label %32

29:                                               ; preds = %21
  %30 = getelementptr inbounds [100 x i8], [100 x i8]* %1, i64 0, i64 0
  %31 = call i32 @puts(i8* %30)
  br label %118

32:                                               ; preds = %21
  br label %115

33:                                               ; preds = %12
  store i32 99, i32* %3, align 4
  br label %34

34:                                               ; preds = %86, %33
  %35 = load i32, i32* %3, align 4
  %36 = icmp sgt i32 %35, 0
  br i1 %36, label %37, label %89

37:                                               ; preds = %34
  %38 = load i32, i32* %3, align 4
  %39 = sext i32 %38 to i64
  %40 = getelementptr inbounds [100 x i8], [100 x i8]* %1, i64 0, i64 %39
  %41 = load i8, i8* %40, align 1
  %42 = sext i8 %41 to i32
  %43 = load i8, i8* %2, align 1
  %44 = sext i8 %43 to i32
  %45 = icmp eq i32 %42, %44
  br i1 %45, label %46, label %85

46:                                               ; preds = %37
  %47 = load i32, i32* %3, align 4
  %48 = add nsw i32 %47, 1
  store i32 %48, i32* %5, align 4
  br label %49

49:                                               ; preds = %81, %46
  %50 = load i32, i32* %5, align 4
  %51 = icmp slt i32 %50, 100
  br i1 %51, label %52, label %84

52:                                               ; preds = %49
  %53 = load i32, i32* %5, align 4
  %54 = sext i32 %53 to i64
  %55 = getelementptr inbounds [100 x i8], [100 x i8]* %1, i64 0, i64 %54
  %56 = load i8, i8* %55, align 1
  %57 = sext i8 %56 to i32
  %58 = call i32 (i8*, ...) @printf(i8* getelementptr inbounds ([3 x i8], [3 x i8]* @.str, i64 0, i64 0), i32 %57)
  %59 = load i32, i32* %5, align 4
  %60 = add nsw i32 %59, 1
  %61 = sext i32 %60 to i64
  %62 = getelementptr inbounds [100 x i8], [100 x i8]* %1, i64 0, i64 %61
  %63 = load i8, i8* %62, align 1
  %64 = sext i8 %63 to i32
  %65 = load i8, i8* %2, align 1
  %66 = sext i8 %65 to i32
  %67 = icmp eq i32 %64, %66
  br i1 %67, label %76, label %68

68:                                               ; preds = %52
  %69 = load i32, i32* %5, align 4
  %70 = add nsw i32 %69, 1
  %71 = sext i32 %70 to i64
  %72 = getelementptr inbounds [100 x i8], [100 x i8]* %1, i64 0, i64 %71
  %73 = load i8, i8* %72, align 1
  %74 = sext i8 %73 to i32
  %75 = icmp eq i32 %74, 0
  br i1 %75, label %76, label %80

76:                                               ; preds = %68, %52
  %77 = load i8, i8* %2, align 1
  %78 = sext i8 %77 to i32
  %79 = call i32 (i8*, ...) @printf(i8* getelementptr inbounds ([3 x i8], [3 x i8]* @.str, i64 0, i64 0), i32 %78)
  br label %84

80:                                               ; preds = %68
  br label %81

81:                                               ; preds = %80
  %82 = load i32, i32* %5, align 4
  %83 = add nsw i32 %82, 1
  store i32 %83, i32* %5, align 4
  br label %49

84:                                               ; preds = %76, %49
  br label %85

85:                                               ; preds = %84, %37
  br label %86

86:                                               ; preds = %85
  %87 = load i32, i32* %3, align 4
  %88 = add nsw i32 %87, -1
  store i32 %88, i32* %3, align 4
  br label %34

89:                                               ; preds = %34
  store i32 0, i32* %4, align 4
  br label %90

90:                                               ; preds = %111, %89
  %91 = load i32, i32* %4, align 4
  %92 = icmp slt i32 %91, 100
  br i1 %92, label %93, label %114

93:                                               ; preds = %90
  %94 = load i32, i32* %4, align 4
  %95 = sext i32 %94 to i64
  %96 = getelementptr inbounds [100 x i8], [100 x i8]* %1, i64 0, i64 %95
  %97 = load i8, i8* %96, align 1
  %98 = sext i8 %97 to i32
  %99 = call i32 (i8*, ...) @printf(i8* getelementptr inbounds ([3 x i8], [3 x i8]* @.str, i64 0, i64 0), i32 %98)
  %100 = load i32, i32* %4, align 4
  %101 = add nsw i32 %100, 1
  %102 = sext i32 %101 to i64
  %103 = getelementptr inbounds [100 x i8], [100 x i8]* %1, i64 0, i64 %102
  %104 = load i8, i8* %103, align 1
  %105 = sext i8 %104 to i32
  %106 = load i8, i8* %2, align 1
  %107 = sext i8 %106 to i32
  %108 = icmp eq i32 %105, %107
  br i1 %108, label %109, label %110

109:                                              ; preds = %93
  br label %114

110:                                              ; preds = %93
  br label %111

111:                                              ; preds = %110
  %112 = load i32, i32* %4, align 4
  %113 = add nsw i32 %112, 1
  store i32 %113, i32* %4, align 4
  br label %90

114:                                              ; preds = %109, %90
  br label %118

115:                                              ; preds = %32
  %116 = load i32, i32* %6, align 4
  %117 = add nsw i32 %116, 1
  store i32 %117, i32* %6, align 4
  br label %9

118:                                              ; preds = %114, %29, %9
  ret void
}

declare dso_local i32 @gets(...) #1

declare dso_local i32 @puts(i8*) #1

declare dso_local i32 @printf(i8*, ...) #1


!llvm.module.flags = !{!0}
!llvm.ident = !{!1}

!0 = !{i32 1, !"wchar_size", i32 4}
!1 = !{!"clang version 10.0.0-4ubuntu1 "}
